; Function Attrs: mustprogress nofree norecurse nosync nounwind willreturn memory(none) uwtable
define range(i32 -1, 129) i32 @ossl_ml_dsa_key_compress_use_hint(i32 noundef %0, i32 noundef %1, i32 noundef %2) local_unnamed_addr #1 {
  %4 = add i32 %1, 127
  %5 = lshr i32 %4, 7
  %6 = icmp eq i32 %2, 261888
  br i1 %6, label %7, label %12

7:                                                ; preds = %3
  %8 = mul nuw nsw i32 %5, 1025
  %9 = add nuw nsw i32 %8, 2097152
  %10 = lshr i32 %9, 22
  %11 = and i32 %10, 15
  br label %ossl_ml_dsa_key_compress_decompose.exit

12:                                               ; preds = %3
  %13 = mul nuw nsw i32 %5, 11275
  %14 = add nuw nsw i32 %13, 8388608
  %15 = lshr i32 %14, 24
  %16 = icmp ugt i32 %4, 8285311
  %17 = select i1 %16, i32 0, i32 %15
  br label %ossl_ml_dsa_key_compress_decompose.exit

ossl_ml_dsa_key_compress_decompose.exit:          ; preds = %7, %12
  %.0.i.i = phi i32 [ %11, %7 ], [ %17, %12 ]
  %18 = shl i32 %2, 1
  %19 = mul i32 %18, %.0.i.i
  %20 = sub i32 %1, %19
  %21 = icmp sgt i32 %20, 4190208
  %.neg.i = select i1 %21, i32 -8380417, i32 0
  %22 = add i32 %.neg.i, %20
  %23 = icmp eq i32 %0, 0
  br i1 %23, label %37, label %24

24:                                               ; preds = %ossl_ml_dsa_key_compress_decompose.exit
  br i1 %6, label %25, label %27

25:                                               ; preds = %24
  %.inv = icmp slt i32 %22, 1
  %.in.v = select i1 %.inv, i32 15, i32 1
  %.in = add nuw nsw i32 %.in.v, %.0.i.i
  %26 = and i32 %.in, 15
  br label %37

27:                                               ; preds = %24
  %28 = icmp sgt i32 %22, 0
  br i1 %28, label %29, label %33

29:                                               ; preds = %27
  %30 = icmp eq i32 %.0.i.i, 43
  %31 = add nuw nsw i32 %.0.i.i, 1
  %32 = select i1 %30, i32 0, i32 %31
  br label %37

33:                                               ; preds = %27
  %34 = icmp eq i32 %.0.i.i, 0
  %35 = add nsw i32 %.0.i.i, -1
  %36 = select i1 %34, i32 43, i32 %35
  br label %37

37:                                               ; preds = %ossl_ml_dsa_key_compress_decompose.exit, %33, %29, %25
  %.0 = phi i32 [ %26, %25 ], [ %32, %29 ], [ %36, %33 ], [ %.0.i.i, %ossl_ml_dsa_key_compress_decompose.exit ]
  ret i32 %.0
}